target datalayout = "e-m:e-p270:32:32-p271:32:32-p272:64:64-i64:64-i128:128-f80:128-n8:16:32:64-S128"
target triple = "x86_64-pc-linux-gnu"

%"class.llvm::ImmutableSet<(anonymous namespace)::EquivalenceClass>::Factory" = type <{ %"class.llvm::ImutAVLFactory.602", i8, [7 x i8] }>
%"class.llvm::ImutAVLFactory.602" = type { %"class.llvm::DenseMap.603", i64, %"class.std::vector.606", %"class.std::vector.606" }
%"class.llvm::DenseMap.603" = type <{ ptr, i32, i32, i32, [4 x i8] }>
%"class.std::vector.606" = type { %"struct.std::_Vector_base.607" }
%"struct.std::_Vector_base.607" = type { %"struct.std::_Vector_base<llvm::ImutAVLTree<llvm::ImutContainerInfo<(anonymous namespace)::EquivalenceClass>> *, std::allocator<llvm::ImutAVLTree<llvm::ImutContainerInfo<(anonymous namespace)::EquivalenceClass>> *>>::_Vector_impl" }
%"struct.std::_Vector_base<llvm::ImutAVLTree<llvm::ImutContainerInfo<(anonymous namespace)::EquivalenceClass>> *, std::allocator<llvm::ImutAVLTree<llvm::ImutContainerInfo<(anonymous namespace)::EquivalenceClass>> *>>::_Vector_impl" = type { %"struct.std::_Vector_base<llvm::ImutAVLTree<llvm::ImutContainerInfo<(anonymous namespace)::EquivalenceClass>> *, std::allocator<llvm::ImutAVLTree<llvm::ImutContainerInfo<(anonymous namespace)::EquivalenceClass>> *>>::_Vector_impl_data" }
%"struct.std::_Vector_base<llvm::ImutAVLTree<llvm::ImutContainerInfo<(anonymous namespace)::EquivalenceClass>> *, std::allocator<llvm::ImutAVLTree<llvm::ImutContainerInfo<(anonymous namespace)::EquivalenceClass>> *>>::_Vector_impl_data" = type { ptr, ptr, ptr }
%"struct.llvm::detail::DenseMapPair.644" = type { %"struct.std::pair.645" }
%"struct.std::pair.645" = type { i32, ptr }

; Function Attrs: mustprogress nounwind uwtable
define internal noundef i32 @_ZNK4llvm8DenseMapIjPNS_11ImutAVLTreeINS_17ImutContainerInfoIN12_GLOBAL__N_116EquivalenceClassEEEEENS_12DenseMapInfoIjvEENS_6detail12DenseMapPairIjS7_EEE13getNumBucketsEv(ptr noundef nonnull align 8 dereferenceable(20) %0) #1 align 2 {
  %2 = alloca ptr, align 8
  store ptr %0, ptr %2, align 8
  %3 = load ptr, ptr %2, align 8
  %4 = getelementptr inbounds nuw %"class.llvm::DenseMap.603", ptr %3, i32 0, i32 3
  %5 = load i32, ptr %4, align 8
  ret i32 %5
}

; Function Attrs: mustprogress nounwind uwtable
define internal void @_ZNSt15__new_allocatorIPN4llvm11ImutAVLTreeINS0_17ImutContainerInfoIN12_GLOBAL__N_116EquivalenceClassEEEEEEC2Ev(ptr noundef nonnull align 1 dereferenceable(1) %0) unnamed_addr #1 align 2 {
  %2 = alloca ptr, align 8
  store ptr %0, ptr %2, align 8
  ret void
}

; Function Attrs: mustprogress nounwind uwtable
define internal noundef i32 @_ZNK4llvm12DenseMapBaseINS_8DenseMapIjPNS_11ImutAVLTreeINS_17ImutContainerInfoIN12_GLOBAL__N_116EquivalenceClassEEEEENS_12DenseMapInfoIjvEENS_6detail12DenseMapPairIjS8_EEEEjS8_SA_SD_E13getNumBucketsEv(ptr noundef nonnull align 1 dereferenceable(1) %0) #1 align 2 {
  %2 = alloca ptr, align 8
  store ptr %0, ptr %2, align 8
  %3 = load ptr, ptr %2, align 8
  %4 = call noundef i32 @_ZNK4llvm8DenseMapIjPNS_11ImutAVLTreeINS_17ImutContainerInfoIN12_GLOBAL__N_116EquivalenceClassEEEEENS_12DenseMapInfoIjvEENS_6detail12DenseMapPairIjS7_EEE13getNumBucketsEv(ptr noundef nonnull align 8 dereferenceable(20) %3)
  ret i32 %4
}

; Function Attrs: mustprogress nounwind uwtable
define internal noundef ptr @_ZNK4llvm8DenseMapIjPNS_11ImutAVLTreeINS_17ImutContainerInfoIN12_GLOBAL__N_116EquivalenceClassEEEEENS_12DenseMapInfoIjvEENS_6detail12DenseMapPairIjS7_EEE10getBucketsEv(ptr noundef nonnull align 8 dereferenceable(20) %0) #1 align 2 {
  %2 = alloca ptr, align 8
  store ptr %0, ptr %2, align 8
  %3 = load ptr, ptr %2, align 8
  %4 = getelementptr inbounds nuw %"class.llvm::DenseMap.603", ptr %3, i32 0, i32 0
  %5 = load ptr, ptr %4, align 8
  ret ptr %5
}

; Function Attrs: mustprogress nounwind uwtable
define linkonce_odr hidden noundef i32 @_ZN4llvm12DenseMapInfoIjvE11getEmptyKeyEv() #1 comdat align 2 {
  ret i32 -1
}

; Function Attrs: mustprogress nounwind uwtable
define internal void @_ZN4llvm8DenseMapIjPNS_11ImutAVLTreeINS_17ImutContainerInfoIN12_GLOBAL__N_116EquivalenceClassEEEEENS_12DenseMapInfoIjvEENS_6detail12DenseMapPairIjS7_EEE16setNumTombstonesEj(ptr noundef nonnull align 8 dereferenceable(20) %0, i32 noundef %1) #1 align 2 {
  %3 = alloca ptr, align 8
  %4 = alloca i32, align 4
  store ptr %0, ptr %3, align 8
  store i32 %1, ptr %4, align 4
  %5 = load ptr, ptr %3, align 8
  %6 = load i32, ptr %4, align 4
  %7 = getelementptr inbounds nuw %"class.llvm::DenseMap.603", ptr %5, i32 0, i32 2
  store i32 %6, ptr %7, align 4
  ret void
}

; Function Attrs: mustprogress nounwind uwtable
define internal void @_ZN4llvm8DenseMapIjPNS_11ImutAVLTreeINS_17ImutContainerInfoIN12_GLOBAL__N_116EquivalenceClassEEEEENS_12DenseMapInfoIjvEENS_6detail12DenseMapPairIjS7_EEE13setNumEntriesEj(ptr noundef nonnull align 8 dereferenceable(20) %0, i32 noundef %1) #1 align 2 {
  %3 = alloca ptr, align 8
  %4 = alloca i32, align 4
  store ptr %0, ptr %3, align 8
  store i32 %1, ptr %4, align 4
  %5 = load ptr, ptr %3, align 8
  %6 = load i32, ptr %4, align 4
  %7 = getelementptr inbounds nuw %"class.llvm::DenseMap.603", ptr %5, i32 0, i32 1
  store i32 %6, ptr %7, align 8
  ret void
}

; Function Attrs: mustprogress nounwind uwtable
define internal void @_ZNSt12_Vector_baseIPN4llvm11ImutAVLTreeINS0_17ImutContainerInfoIN12_GLOBAL__N_116EquivalenceClassEEEEESaIS7_EE17_Vector_impl_dataC2Ev(ptr noundef nonnull align 8 dereferenceable(24) %0) unnamed_addr #1 align 2 {
  %2 = alloca ptr, align 8
  store ptr %0, ptr %2, align 8
  %3 = load ptr, ptr %2, align 8
  %4 = getelementptr inbounds nuw %"struct.std::_Vector_base<llvm::ImutAVLTree<llvm::ImutContainerInfo<(anonymous namespace)::EquivalenceClass>> *, std::allocator<llvm::ImutAVLTree<llvm::ImutContainerInfo<(anonymous namespace)::EquivalenceClass>> *>>::_Vector_impl_data", ptr %3, i32 0, i32 0
  store ptr null, ptr %4, align 8
  %5 = getelementptr inbounds nuw %"struct.std::_Vector_base<llvm::ImutAVLTree<llvm::ImutContainerInfo<(anonymous namespace)::EquivalenceClass>> *, std::allocator<llvm::ImutAVLTree<llvm::ImutContainerInfo<(anonymous namespace)::EquivalenceClass>> *>>::_Vector_impl_data", ptr %3, i32 0, i32 1
  store ptr null, ptr %5, align 8
  %6 = getelementptr inbounds nuw %"struct.std::_Vector_base<llvm::ImutAVLTree<llvm::ImutContainerInfo<(anonymous namespace)::EquivalenceClass>> *, std::allocator<llvm::ImutAVLTree<llvm::ImutContainerInfo<(anonymous namespace)::EquivalenceClass>> *>>::_Vector_impl_data", ptr %3, i32 0, i32 2
  store ptr null, ptr %6, align 8
  ret void
}

; Function Attrs: mustprogress nounwind uwtable
define internal void @_ZNSaIPN4llvm11ImutAVLTreeINS_17ImutContainerInfoIN12_GLOBAL__N_116EquivalenceClassEEEEEEC2Ev(ptr noundef nonnull align 1 dereferenceable(1) %0) unnamed_addr #1 align 2 {
  %2 = alloca ptr, align 8
  store ptr %0, ptr %2, align 8
  %3 = load ptr, ptr %2, align 8
  call void @_ZNSt15__new_allocatorIPN4llvm11ImutAVLTreeINS0_17ImutContainerInfoIN12_GLOBAL__N_116EquivalenceClassEEEEEEC2Ev(ptr noundef nonnull align 1 dereferenceable(1) %3) #3
  ret void
}

; Function Attrs: mustprogress nounwind uwtable
define internal noundef nonnull align 4 dereferenceable(4) ptr @_ZN4llvm6detail12DenseMapPairIjPNS_11ImutAVLTreeINS_17ImutContainerInfoIN12_GLOBAL__N_116EquivalenceClassEEEEEE8getFirstEv(ptr noundef nonnull align 8 dereferenceable(16) %0) #1 align 2 {
  %2 = alloca ptr, align 8
  store ptr %0, ptr %2, align 8
  %3 = load ptr, ptr %2, align 8
  %4 = getelementptr inbounds nuw %"struct.std::pair.645", ptr %3, i32 0, i32 0
  ret ptr %4
}

; Function Attrs: mustprogress nounwind uwtable
define internal noundef ptr @_ZN4llvm12DenseMapBaseINS_8DenseMapIjPNS_11ImutAVLTreeINS_17ImutContainerInfoIN12_GLOBAL__N_116EquivalenceClassEEEEENS_12DenseMapInfoIjvEENS_6detail12DenseMapPairIjS8_EEEEjS8_SA_SD_E13getBucketsEndEv(ptr noundef nonnull align 1 dereferenceable(1) %0) #1 align 2 {
  %2 = alloca ptr, align 8
  store ptr %0, ptr %2, align 8
  %3 = load ptr, ptr %2, align 8
  %4 = call noundef ptr @_ZN4llvm12DenseMapBaseINS_8DenseMapIjPNS_11ImutAVLTreeINS_17ImutContainerInfoIN12_GLOBAL__N_116EquivalenceClassEEEEENS_12DenseMapInfoIjvEENS_6detail12DenseMapPairIjS8_EEEEjS8_SA_SD_E10getBucketsEv(ptr noundef nonnull align 1 dereferenceable(1) %3)
  %5 = call noundef i32 @_ZNK4llvm12DenseMapBaseINS_8DenseMapIjPNS_11ImutAVLTreeINS_17ImutContainerInfoIN12_GLOBAL__N_116EquivalenceClassEEEEENS_12DenseMapInfoIjvEENS_6detail12DenseMapPairIjS8_EEEEjS8_SA_SD_E13getNumBucketsEv(ptr noundef nonnull align 1 dereferenceable(1) %3)
  %6 = zext i32 %5 to i64
  %7 = getelementptr inbounds %"struct.llvm::detail::DenseMapPair.644", ptr %4, i64 %6
  ret ptr %7
}

; Function Attrs: mustprogress nounwind uwtable
define internal noundef ptr @_ZN4llvm12DenseMapBaseINS_8DenseMapIjPNS_11ImutAVLTreeINS_17ImutContainerInfoIN12_GLOBAL__N_116EquivalenceClassEEEEENS_12DenseMapInfoIjvEENS_6detail12DenseMapPairIjS8_EEEEjS8_SA_SD_E10getBucketsEv(ptr noundef nonnull align 1 dereferenceable(1) %0) #1 align 2 {
  %2 = alloca ptr, align 8
  store ptr %0, ptr %2, align 8
  %3 = load ptr, ptr %2, align 8
  %4 = call noundef ptr @_ZNK4llvm8DenseMapIjPNS_11ImutAVLTreeINS_17ImutContainerInfoIN12_GLOBAL__N_116EquivalenceClassEEEEENS_12DenseMapInfoIjvEENS_6detail12DenseMapPairIjS7_EEE10getBucketsEv(ptr noundef nonnull align 8 dereferenceable(20) %3)
  ret ptr %4
}

; Function Attrs: mustprogress nounwind uwtable
define internal noundef i32 @_ZN4llvm12DenseMapBaseINS_8DenseMapIjPNS_11ImutAVLTreeINS_17ImutContainerInfoIN12_GLOBAL__N_116EquivalenceClassEEEEENS_12DenseMapInfoIjvEENS_6detail12DenseMapPairIjS8_EEEEjS8_SA_SD_E11getEmptyKeyEv() #1 align 2 {
  %1 = call noundef i32 @_ZN4llvm12DenseMapInfoIjvE11getEmptyKeyEv()
  ret i32 %1
}

; Function Attrs: mustprogress nounwind uwtable
define internal void @_ZN4llvm12DenseMapBaseINS_8DenseMapIjPNS_11ImutAVLTreeINS_17ImutContainerInfoIN12_GLOBAL__N_116EquivalenceClassEEEEENS_12DenseMapInfoIjvEENS_6detail12DenseMapPairIjS8_EEEEjS8_SA_SD_E16setNumTombstonesEj(ptr noundef nonnull align 1 dereferenceable(1) %0, i32 noundef %1) #1 align 2 {
  %3 = alloca ptr, align 8
  %4 = alloca i32, align 4
  store ptr %0, ptr %3, align 8
  store i32 %1, ptr %4, align 4
  %5 = load ptr, ptr %3, align 8
  %6 = load i32, ptr %4, align 4
  call void @_ZN4llvm8DenseMapIjPNS_11ImutAVLTreeINS_17ImutContainerInfoIN12_GLOBAL__N_116EquivalenceClassEEEEENS_12DenseMapInfoIjvEENS_6detail12DenseMapPairIjS7_EEE16setNumTombstonesEj(ptr noundef nonnull align 8 dereferenceable(20) %5, i32 noundef %6)
  ret void
}

; Function Attrs: mustprogress nounwind uwtable
define internal void @_ZN4llvm12DenseMapBaseINS_8DenseMapIjPNS_11ImutAVLTreeINS_17ImutContainerInfoIN12_GLOBAL__N_116EquivalenceClassEEEEENS_12DenseMapInfoIjvEENS_6detail12DenseMapPairIjS8_EEEEjS8_SA_SD_E13setNumEntriesEj(ptr noundef nonnull align 1 dereferenceable(1) %0, i32 noundef %1) #1 align 2 {
  %3 = alloca ptr, align 8
  %4 = alloca i32, align 4
  store ptr %0, ptr %3, align 8
  store i32 %1, ptr %4, align 4
  %5 = load ptr, ptr %3, align 8
  %6 = load i32, ptr %4, align 4
  call void @_ZN4llvm8DenseMapIjPNS_11ImutAVLTreeINS_17ImutContainerInfoIN12_GLOBAL__N_116EquivalenceClassEEEEENS_12DenseMapInfoIjvEENS_6detail12DenseMapPairIjS7_EEE13setNumEntriesEj(ptr noundef nonnull align 8 dereferenceable(20) %5, i32 noundef %6)
  ret void
}

; Function Attrs: mustprogress nounwind uwtable
define linkonce_odr hidden noundef i64 @_ZN4llvm12NextPowerOf2Em(i64 noundef %0) #1 comdat {
  %2 = alloca i64, align 8
  store i64 %0, ptr %2, align 8
  %3 = load i64, ptr %2, align 8
  %4 = lshr i64 %3, 1
  %5 = load i64, ptr %2, align 8
  %6 = or i64 %5, %4
  store i64 %6, ptr %2, align 8
  %7 = load i64, ptr %2, align 8
  %8 = lshr i64 %7, 2
  %9 = load i64, ptr %2, align 8
  %10 = or i64 %9, %8
  store i64 %10, ptr %2, align 8
  %11 = load i64, ptr %2, align 8
  %12 = lshr i64 %11, 4
  %13 = load i64, ptr %2, align 8
  %14 = or i64 %13, %12
  store i64 %14, ptr %2, align 8
  %15 = load i64, ptr %2, align 8
  %16 = lshr i64 %15, 8
  %17 = load i64, ptr %2, align 8
  %18 = or i64 %17, %16
  store i64 %18, ptr %2, align 8
  %19 = load i64, ptr %2, align 8
  %20 = lshr i64 %19, 16
  %21 = load i64, ptr %2, align 8
  %22 = or i64 %21, %20
  store i64 %22, ptr %2, align 8
  %23 = load i64, ptr %2, align 8
  %24 = lshr i64 %23, 32
  %25 = load i64, ptr %2, align 8
  %26 = or i64 %25, %24
  store i64 %26, ptr %2, align 8
  %27 = load i64, ptr %2, align 8
  %28 = add i64 %27, 1
  ret i64 %28
}

; Function Attrs: mustprogress nounwind uwtable
define internal void @_ZNSt12_Vector_baseIPN4llvm11ImutAVLTreeINS0_17ImutContainerInfoIN12_GLOBAL__N_116EquivalenceClassEEEEESaIS7_EE12_Vector_implC2Ev(ptr noundef nonnull align 8 dereferenceable(24) %0) unnamed_addr #1 align 2 {
  %2 = alloca ptr, align 8
  store ptr %0, ptr %2, align 8
  %3 = load ptr, ptr %2, align 8
  call void @_ZNSaIPN4llvm11ImutAVLTreeINS_17ImutContainerInfoIN12_GLOBAL__N_116EquivalenceClassEEEEEEC2Ev(ptr noundef nonnull align 1 dereferenceable(1) %3) #3
  call void @_ZNSt12_Vector_baseIPN4llvm11ImutAVLTreeINS0_17ImutContainerInfoIN12_GLOBAL__N_116EquivalenceClassEEEEESaIS7_EE17_Vector_impl_dataC2Ev(ptr noundef nonnull align 8 dereferenceable(24) %3) #3
  ret void
}

; Function Attrs: mustprogress nounwind uwtable
define internal void @_ZN4llvm12DenseMapBaseINS_8DenseMapIjPNS_11ImutAVLTreeINS_17ImutContainerInfoIN12_GLOBAL__N_116EquivalenceClassEEEEENS_12DenseMapInfoIjvEENS_6detail12DenseMapPairIjS8_EEEEjS8_SA_SD_E9initEmptyEv(ptr noundef nonnull align 1 dereferenceable(1) %0) #1 align 2 {
  %2 = alloca ptr, align 8
  %3 = alloca i32, align 4
  %4 = alloca ptr, align 8
  %5 = alloca ptr, align 8
  store ptr %0, ptr %2, align 8
  %6 = load ptr, ptr %2, align 8
  call void @_ZN4llvm12DenseMapBaseINS_8DenseMapIjPNS_11ImutAVLTreeINS_17ImutContainerInfoIN12_GLOBAL__N_116EquivalenceClassEEEEENS_12DenseMapInfoIjvEENS_6detail12DenseMapPairIjS8_EEEEjS8_SA_SD_E13setNumEntriesEj(ptr noundef nonnull align 1 dereferenceable(1) %6, i32 noundef 0)
  call void @_ZN4llvm12DenseMapBaseINS_8DenseMapIjPNS_11ImutAVLTreeINS_17ImutContainerInfoIN12_GLOBAL__N_116EquivalenceClassEEEEENS_12DenseMapInfoIjvEENS_6detail12DenseMapPairIjS8_EEEEjS8_SA_SD_E16setNumTombstonesEj(ptr noundef nonnull align 1 dereferenceable(1) %6, i32 noundef 0)
  %7 = call noundef i32 @_ZN4llvm12DenseMapBaseINS_8DenseMapIjPNS_11ImutAVLTreeINS_17ImutContainerInfoIN12_GLOBAL__N_116EquivalenceClassEEEEENS_12DenseMapInfoIjvEENS_6detail12DenseMapPairIjS8_EEEEjS8_SA_SD_E11getEmptyKeyEv()
  store i32 %7, ptr %3, align 4
  %8 = call noundef ptr @_ZN4llvm12DenseMapBaseINS_8DenseMapIjPNS_11ImutAVLTreeINS_17ImutContainerInfoIN12_GLOBAL__N_116EquivalenceClassEEEEENS_12DenseMapInfoIjvEENS_6detail12DenseMapPairIjS8_EEEEjS8_SA_SD_E10getBucketsEv(ptr noundef nonnull align 1 dereferenceable(1) %6)
  store ptr %8, ptr %4, align 8
  %9 = call noundef ptr @_ZN4llvm12DenseMapBaseINS_8DenseMapIjPNS_11ImutAVLTreeINS_17ImutContainerInfoIN12_GLOBAL__N_116EquivalenceClassEEEEENS_12DenseMapInfoIjvEENS_6detail12DenseMapPairIjS8_EEEEjS8_SA_SD_E13getBucketsEndEv(ptr noundef nonnull align 1 dereferenceable(1) %6)
  store ptr %9, ptr %5, align 8
  br label %10

10:                                               ; preds = %18, %1
  %11 = load ptr, ptr %4, align 8
  %12 = load ptr, ptr %5, align 8
  %13 = icmp ne ptr %11, %12
  br i1 %13, label %14, label %21

14:                                               ; preds = %10
  %15 = load ptr, ptr %4, align 8
  %16 = call noundef nonnull align 4 dereferenceable(4) ptr @_ZN4llvm6detail12DenseMapPairIjPNS_11ImutAVLTreeINS_17ImutContainerInfoIN12_GLOBAL__N_116EquivalenceClassEEEEEE8getFirstEv(ptr noundef nonnull align 8 dereferenceable(16) %15)
  %17 = load i32, ptr %3, align 4
  store i32 %17, ptr %16, align 4
  br label %18

18:                                               ; preds = %14
  %19 = load ptr, ptr %4, align 8
  %20 = getelementptr inbounds %"struct.llvm::detail::DenseMapPair.644", ptr %19, i32 1
  store ptr %20, ptr %4, align 8
  br label %10, !llvm.loop !74

21:                                               ; preds = %10
  ret void
}

; Function Attrs: mustprogress nounwind uwtable
define internal noundef zeroext i1 @_ZN4llvm8DenseMapIjPNS_11ImutAVLTreeINS_17ImutContainerInfoIN12_GLOBAL__N_116EquivalenceClassEEEEENS_12DenseMapInfoIjvEENS_6detail12DenseMapPairIjS7_EEE15allocateBucketsEj(ptr noundef nonnull align 8 dereferenceable(20) %0, i32 noundef %1) #1 align 2 {
  %3 = alloca i1, align 1
  %4 = alloca ptr, align 8
  %5 = alloca i32, align 4
  store ptr %0, ptr %4, align 8
  store i32 %1, ptr %5, align 4
  %6 = load ptr, ptr %4, align 8
  %7 = load i32, ptr %5, align 4
  %8 = getelementptr inbounds nuw %"class.llvm::DenseMap.603", ptr %6, i32 0, i32 3
  store i32 %7, ptr %8, align 8
  %9 = getelementptr inbounds nuw %"class.llvm::DenseMap.603", ptr %6, i32 0, i32 3
  %10 = load i32, ptr %9, align 8
  %11 = icmp eq i32 %10, 0
  br i1 %11, label %12, label %14

12:                                               ; preds = %2
  %13 = getelementptr inbounds nuw %"class.llvm::DenseMap.603", ptr %6, i32 0, i32 0
  store ptr null, ptr %13, align 8
  store i1 false, ptr %3, align 1
  br label %21

14:                                               ; preds = %2
  %15 = getelementptr inbounds nuw %"class.llvm::DenseMap.603", ptr %6, i32 0, i32 3
  %16 = load i32, ptr %15, align 8
  %17 = zext i32 %16 to i64
  %18 = mul i64 16, %17
  %19 = call noalias noundef nonnull ptr @_ZN4llvm15allocate_bufferEmm(i64 noundef %18, i64 noundef 8)
  %20 = getelementptr inbounds nuw %"class.llvm::DenseMap.603", ptr %6, i32 0, i32 0
  store ptr %19, ptr %20, align 8
  store i1 true, ptr %3, align 1
  br label %21

21:                                               ; preds = %14, %12
  %22 = load i1, ptr %3, align 1
  ret i1 %22
}

; Function Attrs: mustprogress nounwind uwtable
define internal noundef i32 @_ZN4llvm12DenseMapBaseINS_8DenseMapIjPNS_11ImutAVLTreeINS_17ImutContainerInfoIN12_GLOBAL__N_116EquivalenceClassEEEEENS_12DenseMapInfoIjvEENS_6detail12DenseMapPairIjS8_EEEEjS8_SA_SD_E31getMinBucketToReserveForEntriesEj(ptr noundef nonnull align 1 dereferenceable(1) %0, i32 noundef %1) #1 align 2 {
  %3 = alloca i32, align 4
  %4 = alloca ptr, align 8
  %5 = alloca i32, align 4
  store ptr %0, ptr %4, align 8
  store i32 %1, ptr %5, align 4
  %6 = load i32, ptr %5, align 4
  %7 = icmp eq i32 %6, 0
  br i1 %7, label %8, label %9

8:                                                ; preds = %2
  store i32 0, ptr %3, align 4
  br label %17

9:                                                ; preds = %2
  %10 = load i32, ptr %5, align 4
  %11 = mul i32 %10, 4
  %12 = udiv i32 %11, 3
  %13 = add i32 %12, 1
  %14 = zext i32 %13 to i64
  %15 = call noundef i64 @_ZN4llvm12NextPowerOf2Em(i64 noundef %14)
  %16 = trunc i64 %15 to i32
  store i32 %16, ptr %3, align 4
  br label %17

17:                                               ; preds = %9, %8
  %18 = load i32, ptr %3, align 4
  ret i32 %18
}

; Function Attrs: mustprogress nounwind uwtable
define internal void @_ZNSt12_Vector_baseIPN4llvm11ImutAVLTreeINS0_17ImutContainerInfoIN12_GLOBAL__N_116EquivalenceClassEEEEESaIS7_EEC2Ev(ptr noundef nonnull align 8 dereferenceable(24) %0) unnamed_addr #1 align 2 {
  %2 = alloca ptr, align 8
  store ptr %0, ptr %2, align 8
  %3 = load ptr, ptr %2, align 8
  %4 = getelementptr inbounds nuw %"struct.std::_Vector_base.607", ptr %3, i32 0, i32 0
  call void @_ZNSt12_Vector_baseIPN4llvm11ImutAVLTreeINS0_17ImutContainerInfoIN12_GLOBAL__N_116EquivalenceClassEEEEESaIS7_EE12_Vector_implC2Ev(ptr noundef nonnull align 8 dereferenceable(24) %4) #3
  ret void
}

; Function Attrs: mustprogress nounwind uwtable
define internal void @_ZN4llvm8DenseMapIjPNS_11ImutAVLTreeINS_17ImutContainerInfoIN12_GLOBAL__N_116EquivalenceClassEEEEENS_12DenseMapInfoIjvEENS_6detail12DenseMapPairIjS7_EEE4initEj(ptr noundef nonnull align 8 dereferenceable(20) %0, i32 noundef %1) #1 align 2 {
  %3 = alloca ptr, align 8
  %4 = alloca i32, align 4
  %5 = alloca i32, align 4
  store ptr %0, ptr %3, align 8
  store i32 %1, ptr %4, align 4
  %6 = load ptr, ptr %3, align 8
  %7 = load i32, ptr %4, align 4
  %8 = call noundef i32 @_ZN4llvm12DenseMapBaseINS_8DenseMapIjPNS_11ImutAVLTreeINS_17ImutContainerInfoIN12_GLOBAL__N_116EquivalenceClassEEEEENS_12DenseMapInfoIjvEENS_6detail12DenseMapPairIjS8_EEEEjS8_SA_SD_E31getMinBucketToReserveForEntriesEj(ptr noundef nonnull align 1 dereferenceable(1) %6, i32 noundef %7)
  store i32 %8, ptr %5, align 4
  %9 = load i32, ptr %5, align 4
  %10 = call noundef zeroext i1 @_ZN4llvm8DenseMapIjPNS_11ImutAVLTreeINS_17ImutContainerInfoIN12_GLOBAL__N_116EquivalenceClassEEEEENS_12DenseMapInfoIjvEENS_6detail12DenseMapPairIjS7_EEE15allocateBucketsEj(ptr noundef nonnull align 8 dereferenceable(20) %6, i32 noundef %9)
  br i1 %10, label %11, label %12

11:                                               ; preds = %2
  call void @_ZN4llvm12DenseMapBaseINS_8DenseMapIjPNS_11ImutAVLTreeINS_17ImutContainerInfoIN12_GLOBAL__N_116EquivalenceClassEEEEENS_12DenseMapInfoIjvEENS_6detail12DenseMapPairIjS8_EEEEjS8_SA_SD_E9initEmptyEv(ptr noundef nonnull align 1 dereferenceable(1) %6)
  br label %15

12:                                               ; preds = %2
  %13 = getelementptr inbounds nuw %"class.llvm::DenseMap.603", ptr %6, i32 0, i32 1
  store i32 0, ptr %13, align 8
  %14 = getelementptr inbounds nuw %"class.llvm::DenseMap.603", ptr %6, i32 0, i32 2
  store i32 0, ptr %14, align 4
  br label %15

15:                                               ; preds = %12, %11
  ret void
}

; Function Attrs: mustprogress nounwind uwtable
define internal void @_ZNSt6vectorIPN4llvm11ImutAVLTreeINS0_17ImutContainerInfoIN12_GLOBAL__N_116EquivalenceClassEEEEESaIS7_EEC2Ev(ptr noundef nonnull align 8 dereferenceable(24) %0) unnamed_addr #1 align 2 {
  %2 = alloca ptr, align 8
  store ptr %0, ptr %2, align 8
  %3 = load ptr, ptr %2, align 8
  call void @_ZNSt12_Vector_baseIPN4llvm11ImutAVLTreeINS0_17ImutContainerInfoIN12_GLOBAL__N_116EquivalenceClassEEEEESaIS7_EEC2Ev(ptr noundef nonnull align 8 dereferenceable(24) %3) #3
  ret void
}

; Function Attrs: mustprogress nounwind uwtable
define internal void @_ZN4llvm8DenseMapIjPNS_11ImutAVLTreeINS_17ImutContainerInfoIN12_GLOBAL__N_116EquivalenceClassEEEEENS_12DenseMapInfoIjvEENS_6detail12DenseMapPairIjS7_EEEC2Ej(ptr noundef nonnull align 8 dereferenceable(20) %0, i32 noundef %1) unnamed_addr #1 align 2 {
  %3 = alloca ptr, align 8
  %4 = alloca i32, align 4
  store ptr %0, ptr %3, align 8
  store i32 %1, ptr %4, align 4
  %5 = load ptr, ptr %3, align 8
  %6 = load i32, ptr %4, align 4
  call void @_ZN4llvm8DenseMapIjPNS_11ImutAVLTreeINS_17ImutContainerInfoIN12_GLOBAL__N_116EquivalenceClassEEEEENS_12DenseMapInfoIjvEENS_6detail12DenseMapPairIjS7_EEE4initEj(ptr noundef nonnull align 8 dereferenceable(20) %5, i32 noundef %6)
  ret void
}

; Function Attrs: mustprogress nounwind uwtable
define internal void @_ZN4llvm14ImutAVLFactoryINS_17ImutContainerInfoIN12_GLOBAL__N_116EquivalenceClassEEEEC2ERNS_20BumpPtrAllocatorImplINS_15MallocAllocatorELm4096ELm4096ELm128EEE(ptr noundef nonnull align 8 dereferenceable(80) %0, ptr noundef nonnull align 8 dereferenceable(96) %1) unnamed_addr #1 align 2 {
  %3 = alloca ptr, align 8
  %4 = alloca ptr, align 8
  store ptr %0, ptr %3, align 8
  store ptr %1, ptr %4, align 8
  %5 = load ptr, ptr %3, align 8
  %6 = getelementptr inbounds nuw %"class.llvm::ImutAVLFactory.602", ptr %5, i32 0, i32 0
  call void @_ZN4llvm8DenseMapIjPNS_11ImutAVLTreeINS_17ImutContainerInfoIN12_GLOBAL__N_116EquivalenceClassEEEEENS_12DenseMapInfoIjvEENS_6detail12DenseMapPairIjS7_EEEC2Ej(ptr noundef nonnull align 8 dereferenceable(20) %6, i32 noundef 0)
  %7 = getelementptr inbounds nuw %"class.llvm::ImutAVLFactory.602", ptr %5, i32 0, i32 1
  %8 = load ptr, ptr %4, align 8
  %9 = ptrtoint ptr %8 to i64
  %10 = or i64 %9, 1
  store i64 %10, ptr %7, align 8
  %11 = getelementptr inbounds nuw %"class.llvm::ImutAVLFactory.602", ptr %5, i32 0, i32 2
  call void @_ZNSt6vectorIPN4llvm11ImutAVLTreeINS0_17ImutContainerInfoIN12_GLOBAL__N_116EquivalenceClassEEEEESaIS7_EEC2Ev(ptr noundef nonnull align 8 dereferenceable(24) %11) #3
  %12 = getelementptr inbounds nuw %"class.llvm::ImutAVLFactory.602", ptr %5, i32 0, i32 3
  call void @_ZNSt6vectorIPN4llvm11ImutAVLTreeINS0_17ImutContainerInfoIN12_GLOBAL__N_116EquivalenceClassEEEEESaIS7_EEC2Ev(ptr noundef nonnull align 8 dereferenceable(24) %12) #3
  ret void
}

; Function Attrs: mustprogress nounwind uwtable
define internal void @_ZN4llvm12ImmutableSetIN12_GLOBAL__N_116EquivalenceClassENS_17ImutContainerInfoIS2_EEE7FactoryC2ERNS_20BumpPtrAllocatorImplINS_15MallocAllocatorELm4096ELm4096ELm128EEEb(ptr noundef nonnull align 8 dereferenceable(81) %0, ptr noundef nonnull align 8 dereferenceable(96) %1, i1 noundef zeroext %2) unnamed_addr #1 align 2 {
  %4 = alloca ptr, align 8
  %5 = alloca ptr, align 8
  %6 = alloca i8, align 1
  store ptr %0, ptr %4, align 8
  store ptr %1, ptr %5, align 8
  %7 = zext i1 %2 to i8
  store i8 %7, ptr %6, align 1
  %8 = load ptr, ptr %4, align 8
  %9 = getelementptr inbounds nuw %"class.llvm::ImmutableSet<(anonymous namespace)::EquivalenceClass>::Factory", ptr %8, i32 0, i32 0
  %10 = load ptr, ptr %5, align 8
  call void @_ZN4llvm14ImutAVLFactoryINS_17ImutContainerInfoIN12_GLOBAL__N_116EquivalenceClassEEEEC2ERNS_20BumpPtrAllocatorImplINS_15MallocAllocatorELm4096ELm4096ELm128EEE(ptr noundef nonnull align 8 dereferenceable(80) %9, ptr noundef nonnull align 8 dereferenceable(96) %10)
  %11 = getelementptr inbounds nuw %"class.llvm::ImmutableSet<(anonymous namespace)::EquivalenceClass>::Factory", ptr %8, i32 0, i32 1
  %12 = load i8, ptr %6, align 1
  %13 = trunc i8 %12 to i1
  %14 = zext i1 %13 to i8
  store i8 %14, ptr %11, align 8
  ret void
}

; Function Attrs: mustprogress nounwind uwtable
define internal noundef ptr @_ZN5clang4ento24ProgramStatePartialTraitIN4llvm12ImmutableSetIN12_GLOBAL__N_116EquivalenceClassENS2_17ImutContainerInfoIS5_EEEEvE13CreateContextERNS2_20BumpPtrAllocatorImplINS2_15MallocAllocatorELm4096ELm4096ELm128EEE(ptr noundef nonnull align 8 dereferenceable(96) %0) #1 align 2 {
  %2 = alloca ptr, align 8
  store ptr %0, ptr %2, align 8
  %3 = call noalias noundef nonnull ptr @_Znwm(i64 noundef 88) #17
  %4 = load ptr, ptr %2, align 8
  call void @_ZN4llvm12ImmutableSetIN12_GLOBAL__N_116EquivalenceClassENS_17ImutContainerInfoIS2_EEE7FactoryC2ERNS_20BumpPtrAllocatorImplINS_15MallocAllocatorELm4096ELm4096ELm128EEEb(ptr noundef nonnull align 8 dereferenceable(81) %3, ptr noundef nonnull align 8 dereferenceable(96) %4, i1 noundef zeroext true)
  ret ptr %3
}